; Function Attrs: mustprogress nounwind uwtable
define internal void @"_ZN4node13CallbackQueueIvJPNS_11EnvironmentEEE12CallbackImplIZNS_16RequestInterruptES2_PFvPvES5_E3$_0E4CallES2_"(ptr nocapture noundef nonnull readonly align 8 dereferenceable(40) %this, ptr nocapture noundef readonly %args) unnamed_addr #3 align 2 {
entry:
  %scope.i = alloca %"class.v8::Isolate::DisallowJavascriptExecutionScope", align 8
  %callback_ = getelementptr inbounds i8, ptr %this, i64 24
  %0 = getelementptr i8, ptr %args, i64 88
  %args.val = load ptr, ptr %0, align 8
  call void @llvm.lifetime.start.p0(i64 16, ptr nonnull %scope.i)
  call void @_ZN2v87Isolate32DisallowJavascriptExecutionScopeC1EPS0_NS1_9OnFailureE(ptr noundef nonnull align 8 dereferenceable(13) %scope.i, ptr noundef %args.val, i32 noundef 0) #12
  %1 = load ptr, ptr %callback_, align 8
  %2 = getelementptr inbounds i8, ptr %this, i64 32
  %3 = load ptr, ptr %2, align 8
  call void %1(ptr noundef %3) #12
  call void @_ZN2v87Isolate32DisallowJavascriptExecutionScopeD1Ev(ptr noundef nonnull align 8 dereferenceable(13) %scope.i) #12
  call void @llvm.lifetime.end.p0(i64 16, ptr nonnull %scope.i)
  ret void
}